target datalayout = "e-m:e-p270:32:32-p271:32:32-p272:64:64-i64:64-i128:128-f80:128-n8:16:32:64-S128"
target triple = "x86_64-pc-linux-gnu"

%struct.Expr_ = type { ptr, %union.SourceSpan, i16, %union.anon.29 }
%union.SourceSpan = type { i64 }
%union.anon.29 = type { %struct.ExprAnySwitch }
%struct.ExprAnySwitch = type { i8, %union.anon.31 }
%union.anon.31 = type { %struct.anon.32 }
%struct.anon.32 = type { ptr, %union.SourceSpan, ptr }
%struct.ExprConst = type { i16, %union.anon.38 }
%union.anon.38 = type { %struct.Int }
%struct.Int = type { %struct.Int128_, i32 }
%struct.Int128_ = type { i64, i64 }
%struct.VHeader_ = type { i32, i32, [0 x i8] }

; Function Attrs: nounwind uwtable
define internal void @expr_recursively_rewrite_untyped_list(ptr noundef %0, ptr noundef %1) #0 {
  %3 = alloca ptr, align 8
  %4 = alloca i32, align 4
  %5 = alloca ptr, align 8
  %6 = alloca ptr, align 8
  %7 = alloca ptr, align 8
  %8 = alloca ptr, align 8
  %9 = alloca ptr, align 8
  %10 = alloca i32, align 4
  %11 = alloca i32, align 4
  %12 = alloca ptr, align 8
  store ptr %0, ptr %7, align 8
  store ptr %1, ptr %8, align 8
  %13 = load ptr, ptr %7, align 8
  store ptr %13, ptr %3, align 8
  %14 = load ptr, ptr %3, align 8
  %15 = getelementptr inbounds %struct.Expr_, ptr %14, i32 0, i32 2
  %16 = load i16, ptr %15, align 8
  %17 = and i16 %16, 255
  %18 = zext i16 %17 to i32
  %19 = icmp eq i32 %18, 14
  br i1 %19, label %20, label %27

20:                                               ; preds = %2
  %21 = load ptr, ptr %3, align 8
  %22 = getelementptr inbounds %struct.Expr_, ptr %21, i32 0, i32 3
  %23 = load i16, ptr %22, align 8
  %24 = and i16 %23, 255
  %25 = zext i16 %24 to i32
  %26 = icmp eq i32 %25, 10
  br label %27

27:                                               ; preds = %20, %2
  %28 = phi i1 [ false, %2 ], [ %26, %20 ]
  br i1 %28, label %30, label %29

29:                                               ; preds = %27
  br label %76

30:                                               ; preds = %27
  %31 = load ptr, ptr %7, align 8
  %32 = getelementptr inbounds %struct.Expr_, ptr %31, i32 0, i32 2
  %33 = load i16, ptr %32, align 8
  %34 = and i16 %33, -256
  %35 = or i16 %34, 35
  store i16 %35, ptr %32, align 8
  %36 = load ptr, ptr %8, align 8
  %37 = load ptr, ptr %7, align 8
  %38 = getelementptr inbounds %struct.Expr_, ptr %37, i32 0, i32 3
  store ptr %36, ptr %38, align 8
  %39 = load ptr, ptr %7, align 8
  %40 = getelementptr inbounds %struct.Expr_, ptr %39, i32 0, i32 2
  %41 = load i16, ptr %40, align 8
  %42 = and i16 %41, -3841
  %43 = or i16 %42, 0
  store i16 %43, ptr %40, align 8
  %44 = load ptr, ptr %8, align 8
  store ptr %44, ptr %9, align 8
  %45 = load ptr, ptr %9, align 8
  store ptr %45, ptr %5, align 8
  %46 = load ptr, ptr %5, align 8
  %47 = icmp ne ptr %46, null
  br i1 %47, label %49, label %48

48:                                               ; preds = %30
  store i32 0, ptr %4, align 4
  br label %54

49:                                               ; preds = %30
  %50 = load ptr, ptr %5, align 8
  store ptr %50, ptr %6, align 8
  %51 = load ptr, ptr %6, align 8
  %52 = getelementptr inbounds %struct.VHeader_, ptr %51, i64 -1
  %53 = load i32, ptr %52, align 4
  store i32 %53, ptr %4, align 4
  br label %54

54:                                               ; preds = %49, %48
  %55 = load i32, ptr %4, align 4
  store i32 %55, ptr %10, align 4
  store i32 0, ptr %11, align 4
  br label %56

56:                                               ; preds = %71, %54
  %57 = load i32, ptr %11, align 4
  %58 = load i32, ptr %10, align 4
  %59 = icmp ult i32 %57, %58
  br i1 %59, label %60, label %74

60:                                               ; preds = %56
  %61 = load ptr, ptr %9, align 8
  %62 = load i32, ptr %11, align 4
  %63 = zext i32 %62 to i64
  %64 = getelementptr inbounds ptr, ptr %61, i64 %63
  %65 = load ptr, ptr %64, align 8
  store ptr %65, ptr %12, align 8
  %66 = load ptr, ptr %12, align 8
  %67 = load ptr, ptr %12, align 8
  %68 = getelementptr inbounds %struct.Expr_, ptr %67, i32 0, i32 3
  %69 = getelementptr inbounds %struct.ExprConst, ptr %68, i32 0, i32 1
  %70 = load ptr, ptr %69, align 8
  call void @expr_recursively_rewrite_untyped_list(ptr noundef %66, ptr noundef %70)
  br label %71

71:                                               ; preds = %60
  %72 = load i32, ptr %11, align 4
  %73 = add i32 %72, 1
  store i32 %73, ptr %11, align 4
  br label %56, !llvm.loop !16

74:                                               ; preds = %56
  br label %75

75:                                               ; preds = %74
  br label %76

76:                                               ; preds = %75, %29
  ret void
}