; Function Attrs: nofree nosync nounwind memory(readwrite, inaccessiblemem: none) uwtable
define internal fastcc void @expr_recursively_rewrite_untyped_list(ptr nocapture noundef %0, ptr noundef %1) unnamed_addr #8 {
  %3 = getelementptr inbounds i8, ptr %0, i64 16
  %4 = load i16, ptr %3, align 8
  %5 = and i16 %4, 255
  %6 = icmp eq i16 %5, 14
  br i1 %6, label %7, label %.critedge

7:                                                ; preds = %2
  %8 = getelementptr inbounds i8, ptr %0, i64 24
  %9 = load i16, ptr %8, align 8
  %10 = and i16 %9, 255
  %11 = icmp eq i16 %10, 10
  br i1 %11, label %12, label %.critedge

12:                                               ; preds = %7
  store ptr %1, ptr %8, align 8
  %13 = and i16 %4, -4096
  %14 = or disjoint i16 %13, 35
  store i16 %14, ptr %3, align 8
  %.not = icmp eq ptr %1, null
  br i1 %.not, label %.critedge, label %15

15:                                               ; preds = %12
  %16 = getelementptr inbounds i8, ptr %1, i64 -8
  %17 = load i32, ptr %16, align 4
  %.not22 = icmp eq i32 %17, 0
  br i1 %.not22, label %.critedge, label %.lr.ph.preheader

.lr.ph.preheader:                                 ; preds = %15
  %wide.trip.count = zext i32 %17 to i64
  br label %.lr.ph

.lr.ph:                                           ; preds = %.lr.ph.preheader, %.lr.ph
  %indvars.iv = phi i64 [ 0, %.lr.ph.preheader ], [ %indvars.iv.next, %.lr.ph ]
  %18 = getelementptr inbounds ptr, ptr %1, i64 %indvars.iv
  %19 = load ptr, ptr %18, align 8
  %20 = getelementptr inbounds i8, ptr %19, i64 32
  %21 = load ptr, ptr %20, align 8
  tail call fastcc void @expr_recursively_rewrite_untyped_list(ptr noundef %19, ptr noundef %21)
  %indvars.iv.next = add nuw nsw i64 %indvars.iv, 1
  %exitcond.not = icmp eq i64 %indvars.iv.next, %wide.trip.count
  br i1 %exitcond.not, label %.critedge, label %.lr.ph, !llvm.loop !16

.critedge:                                        ; preds = %.lr.ph, %12, %15, %2, %7
  ret void
}